target datalayout = "e-m:e-p270:32:32-p271:32:32-p272:64:64-i64:64-i128:128-f80:128-n8:16:32:64-S128"
target triple = "x86_64-pc-linux-gnu"

%struct.FunctionCallInfoBaseData = type { ptr, ptr, ptr, i32, i8, i16, [0 x %struct.NullableDatum] }
%struct.NullableDatum = type { i64, i8 }
%struct._FuncCandidateList = type { ptr, i32, i32, i32, i32, i32, i32, ptr, [0 x i32] }
%union.ListCell = type { ptr }
%struct.nameData = type { [64 x i8] }
%struct.HeapTupleData = type { i32, %struct.ItemPointerData, i32, ptr }
%struct.ItemPointerData = type { %struct.BlockIdData, i16 }
%struct.BlockIdData = type { i16, i16 }
%struct.HeapTupleHeaderData = type { %union.anon, %struct.ItemPointerData, i16, i16, i8, [0 x i8] }
%union.anon = type { %struct.HeapTupleFields }
%struct.HeapTupleFields = type { i32, i32, %union.anon.0 }
%union.anon.0 = type { i32 }
%struct.FormData_pg_operator = type { i32, %struct.nameData, i32, i32, i8, i8, i8, i32, i32, i32, i32, i32, i32, i32, i32 }

@Mode = external global i32, align 4
@.str.5 = private unnamed_addr constant [3 x i8] c"%u\00", align 1
@.str.12 = private unnamed_addr constant [2 x i8] c"0\00", align 1
@.str.13 = private unnamed_addr constant [6 x i8] c"%s.%s\00", align 1

; Function Attrs: inlinehint nounwind uwtable
define internal i64 @PointerGetDatum(ptr noundef %0) #2 {
  %2 = alloca ptr, align 8
  store ptr %0, ptr %2, align 8
  %3 = load ptr, ptr %2, align 8
  %4 = ptrtoint ptr %3 to i64
  ret i64 %4
}

; Function Attrs: inlinehint nounwind uwtable
define internal ptr @GETSTRUCT(ptr noundef %0) #2 {
  %2 = alloca ptr, align 8
  store ptr %0, ptr %2, align 8
  %3 = load ptr, ptr %2, align 8
  %4 = getelementptr inbounds nuw %struct.HeapTupleData, ptr %3, i32 0, i32 3
  %5 = load ptr, ptr %4, align 8
  %6 = load ptr, ptr %2, align 8
  %7 = getelementptr inbounds nuw %struct.HeapTupleData, ptr %6, i32 0, i32 3
  %8 = load ptr, ptr %7, align 8
  %9 = getelementptr inbounds nuw %struct.HeapTupleHeaderData, ptr %8, i32 0, i32 4
  %10 = load i8, ptr %9, align 2
  %11 = zext i8 %10 to i32
  %12 = sext i32 %11 to i64
  %13 = getelementptr inbounds i8, ptr %5, i64 %12
  ret ptr %13
}

; Function Attrs: inlinehint nounwind uwtable
define internal i64 @ObjectIdGetDatum(i32 noundef %0) #2 {
  %2 = alloca i32, align 4
  store i32 %0, ptr %2, align 4
  %3 = load i32, ptr %2, align 4
  %4 = zext i32 %3 to i64
  ret i64 %4
}

; Function Attrs: inlinehint nounwind uwtable
define internal i64 @CStringGetDatum(ptr noundef %0) #2 {
  %2 = alloca ptr, align 8
  store ptr %0, ptr %2, align 8
  %3 = load ptr, ptr %2, align 8
  %4 = call i64 @PointerGetDatum(ptr noundef %3)
  ret i64 %4
}

; Function Attrs: inlinehint nounwind uwtable
define internal i32 @DatumGetObjectId(i64 noundef %0) #2 {
  %2 = alloca i64, align 8
  store i64 %0, ptr %2, align 8
  %3 = load i64, ptr %2, align 8
  %4 = trunc i64 %3 to i32
  ret i32 %4
}

; Function Attrs: nounwind uwtable
define dso_local i64 @regoperout(ptr noundef %0) #0 {
  %2 = alloca i64, align 8
  %3 = alloca ptr, align 8
  %4 = alloca i32, align 4
  %5 = alloca ptr, align 8
  %6 = alloca ptr, align 8
  %7 = alloca i32, align 4
  %8 = alloca ptr, align 8
  %9 = alloca ptr, align 8
  %10 = alloca ptr, align 8
  %11 = alloca %union.ListCell, align 8
  %12 = alloca ptr, align 8
  store ptr %0, ptr %3, align 8
  call void @llvm.lifetime.start.p0(i64 4, ptr %4) #8
  %13 = load ptr, ptr %3, align 8
  %14 = getelementptr inbounds nuw %struct.FunctionCallInfoBaseData, ptr %13, i32 0, i32 6
  %15 = getelementptr inbounds [0 x %struct.NullableDatum], ptr %14, i64 0, i64 0
  %16 = getelementptr inbounds nuw %struct.NullableDatum, ptr %15, i32 0, i32 0
  %17 = load i64, ptr %16, align 8
  %18 = call i32 @DatumGetObjectId(i64 noundef %17)
  store i32 %18, ptr %4, align 4
  call void @llvm.lifetime.start.p0(i64 8, ptr %5) #8
  call void @llvm.lifetime.start.p0(i64 8, ptr %6) #8
  %19 = load i32, ptr %4, align 4
  %20 = icmp eq i32 %19, 0
  br i1 %20, label %21, label %25

21:                                               ; preds = %1
  %22 = call ptr @pstrdup(ptr noundef @.str.12)
  store ptr %22, ptr %5, align 8
  %23 = load ptr, ptr %5, align 8
  %24 = call i64 @CStringGetDatum(ptr noundef %23)
  store i64 %24, ptr %2, align 8
  store i32 1, ptr %7, align 4
  br label %95

25:                                               ; preds = %1
  %26 = load i32, ptr %4, align 4
  %27 = call i64 @ObjectIdGetDatum(i32 noundef %26)
  %28 = call ptr @SearchSysCache1(i32 noundef 40, i64 noundef %27)
  store ptr %28, ptr %6, align 8
  %29 = load ptr, ptr %6, align 8
  %30 = icmp ne ptr %29, null
  br i1 %30, label %31, label %87

31:                                               ; preds = %25
  call void @llvm.lifetime.start.p0(i64 8, ptr %8) #8
  %32 = load ptr, ptr %6, align 8
  %33 = call ptr @GETSTRUCT(ptr noundef %32)
  store ptr %33, ptr %8, align 8
  call void @llvm.lifetime.start.p0(i64 8, ptr %9) #8
  %34 = load ptr, ptr %8, align 8
  %35 = getelementptr inbounds nuw %struct.FormData_pg_operator, ptr %34, i32 0, i32 1
  %36 = getelementptr inbounds nuw %struct.nameData, ptr %35, i32 0, i32 0
  %37 = getelementptr inbounds [64 x i8], ptr %36, i64 0, i64 0
  store ptr %37, ptr %9, align 8
  %38 = load i32, ptr @Mode, align 4
  %39 = icmp eq i32 %38, 0
  br i1 %39, label %40, label %43

40:                                               ; preds = %31
  %41 = load ptr, ptr %9, align 8
  %42 = call ptr @pstrdup(ptr noundef %41)
  store ptr %42, ptr %5, align 8
  br label %85

43:                                               ; preds = %31
  call void @llvm.lifetime.start.p0(i64 8, ptr %10) #8
  %44 = load ptr, ptr %9, align 8
  %45 = call ptr @makeString(ptr noundef %44)
  store ptr %45, ptr %11, align 8
  %46 = getelementptr inbounds nuw %union.ListCell, ptr %11, i32 0, i32 0
  %47 = load ptr, ptr %46, align 8
  %48 = call ptr @list_make1_impl(i32 noundef 1, ptr %47)
  %49 = call ptr @OpernameGetCandidates(ptr noundef %48, i8 noundef signext 0, i1 noundef zeroext false)
  store ptr %49, ptr %10, align 8
  %50 = load ptr, ptr %10, align 8
  %51 = icmp ne ptr %50, null
  br i1 %51, label %52, label %66

52:                                               ; preds = %43
  %53 = load ptr, ptr %10, align 8
  %54 = getelementptr inbounds nuw %struct._FuncCandidateList, ptr %53, i32 0, i32 0
  %55 = load ptr, ptr %54, align 8
  %56 = icmp eq ptr %55, null
  br i1 %56, label %57, label %66

57:                                               ; preds = %52
  %58 = load ptr, ptr %10, align 8
  %59 = getelementptr inbounds nuw %struct._FuncCandidateList, ptr %58, i32 0, i32 2
  %60 = load i32, ptr %59, align 4
  %61 = load i32, ptr %4, align 4
  %62 = icmp eq i32 %60, %61
  br i1 %62, label %63, label %66

63:                                               ; preds = %57
  %64 = load ptr, ptr %9, align 8
  %65 = call ptr @pstrdup(ptr noundef %64)
  store ptr %65, ptr %5, align 8
  br label %84

66:                                               ; preds = %57, %52, %43
  call void @llvm.lifetime.start.p0(i64 8, ptr %12) #8
  %67 = load ptr, ptr %8, align 8
  %68 = getelementptr inbounds nuw %struct.FormData_pg_operator, ptr %67, i32 0, i32 2
  %69 = load i32, ptr %68, align 4
  %70 = call ptr @get_namespace_name(i32 noundef %69)
  store ptr %70, ptr %12, align 8
  %71 = load ptr, ptr %12, align 8
  %72 = call ptr @quote_identifier(ptr noundef %71)
  store ptr %72, ptr %12, align 8
  %73 = load ptr, ptr %12, align 8
  %74 = call i64 @strlen(ptr noundef %73) #10
  %75 = load ptr, ptr %9, align 8
  %76 = call i64 @strlen(ptr noundef %75) #10
  %77 = add i64 %74, %76
  %78 = add i64 %77, 2
  %79 = call ptr @palloc(i64 noundef %78)
  store ptr %79, ptr %5, align 8
  %80 = load ptr, ptr %5, align 8
  %81 = load ptr, ptr %12, align 8
  %82 = load ptr, ptr %9, align 8
  %83 = call i32 (ptr, ptr, ...) @pg_sprintf(ptr noundef %80, ptr noundef @.str.13, ptr noundef %81, ptr noundef %82)
  call void @llvm.lifetime.end.p0(i64 8, ptr %12) #8
  br label %84

84:                                               ; preds = %66, %63
  call void @llvm.lifetime.end.p0(i64 8, ptr %10) #8
  br label %85

85:                                               ; preds = %84, %40
  %86 = load ptr, ptr %6, align 8
  call void @ReleaseSysCache(ptr noundef %86)
  call void @llvm.lifetime.end.p0(i64 8, ptr %9) #8
  call void @llvm.lifetime.end.p0(i64 8, ptr %8) #8
  br label %92

87:                                               ; preds = %25
  %88 = call ptr @palloc(i64 noundef 64)
  store ptr %88, ptr %5, align 8
  %89 = load ptr, ptr %5, align 8
  %90 = load i32, ptr %4, align 4
  %91 = call i32 (ptr, i64, ptr, ...) @pg_snprintf(ptr noundef %89, i64 noundef 64, ptr noundef @.str.5, i32 noundef %90)
  br label %92

92:                                               ; preds = %87, %85
  %93 = load ptr, ptr %5, align 8
  %94 = call i64 @CStringGetDatum(ptr noundef %93)
  store i64 %94, ptr %2, align 8
  store i32 1, ptr %7, align 4
  br label %95

95:                                               ; preds = %92, %21
  call void @llvm.lifetime.end.p0(i64 8, ptr %6) #8
  call void @llvm.lifetime.end.p0(i64 8, ptr %5) #8
  call void @llvm.lifetime.end.p0(i64 4, ptr %4) #8
  %96 = load i64, ptr %2, align 8
  ret i64 %96
}